; Function Attrs: nounwind uwtable
define internal ptr @object_hasattrstring(ptr readnone captures(none) %0, ptr noundef %1) #0 {
  %3 = alloca ptr, align 8
  %4 = alloca ptr, align 8
  %5 = alloca i64, align 8
  call void @llvm.lifetime.start.p0(i64 8, ptr nonnull %3) #4
  call void @llvm.lifetime.start.p0(i64 8, ptr nonnull %4) #4
  call void @llvm.lifetime.start.p0(i64 8, ptr nonnull %5) #4
  %6 = call i32 (ptr, ptr, ...) @PyArg_ParseTuple(ptr noundef %1, ptr noundef nonnull @.str.49, ptr noundef nonnull %3, ptr noundef nonnull %4, ptr noundef nonnull %5) #4
  %.not = icmp eq i32 %6, 0
  br i1 %.not, label %17, label %7

7:                                                ; preds = %2
  %8 = load ptr, ptr %3, align 8, !tbaa !3
  %9 = icmp eq ptr %8, @_Py_NoneStruct
  br i1 %9, label %10, label %11

10:                                               ; preds = %7
  store ptr null, ptr %3, align 8, !tbaa !3
  br label %11

11:                                               ; preds = %10, %7
  %12 = phi ptr [ null, %10 ], [ %8, %7 ]
  %13 = load ptr, ptr %4, align 8, !tbaa !8
  %14 = call i32 @PyObject_HasAttrString(ptr noundef %12, ptr noundef %13) #4
  %15 = sext i32 %14 to i64
  %16 = call ptr @PyLong_FromLong(i64 noundef %15) #4
  br label %17

17:                                               ; preds = %2, %11
  %.0 = phi ptr [ %16, %11 ], [ null, %2 ]
  call void @llvm.lifetime.end.p0(i64 8, ptr nonnull %5) #4
  call void @llvm.lifetime.end.p0(i64 8, ptr nonnull %4) #4
  call void @llvm.lifetime.end.p0(i64 8, ptr nonnull %3) #4
  ret ptr %.0
}